target datalayout = "e-m:e-p270:32:32-p271:32:32-p272:64:64-i64:64-i128:128-f80:128-n8:16:32:64-S128"
target triple = "x86_64-pc-linux-gnu"

%struct.AVTextWriterContext = type { ptr, ptr, ptr, ptr }
%struct.IOWriterContext = type { ptr, ptr, i32 }

@.str = private unnamed_addr constant [11 x i8] c"aviowriter\00", align 1
@avtextwriter_avio = constant { ptr, i32, [4 x i8], ptr, ptr, ptr, ptr, ptr, ptr } { ptr null, i32 24, [4 x i8] zeroinitializer, ptr @.str, ptr null, ptr @iowriter_uninit, ptr @io_w8, ptr @io_put_str, ptr @io_vprintf }, align 8
@.str.1 = private unnamed_addr constant [45 x i8] c"The output_filename cannot be NULL or empty\0A\00", align 1
@.str.2 = private unnamed_addr constant [43 x i8] c"Failed to open output '%s' with error: %s\0A\00", align 1
@.str.3 = private unnamed_addr constant [30 x i8] c"Assertion %s failed at %s:%d\0A\00", align 1
@.str.4 = private unnamed_addr constant [9 x i8] c"avio_ctx\00", align 1
@.str.5 = private unnamed_addr constant [29 x i8] c"fftools/textformat/tw_avio.c\00", align 1

; Function Attrs: cold nounwind optsize uwtable
define internal i32 @iowriter_uninit(ptr noundef %0) #0 {
  %2 = alloca ptr, align 8
  %3 = alloca ptr, align 8
  %4 = alloca i32, align 4
  store ptr %0, ptr %2, align 8, !tbaa !4
  call void @llvm.lifetime.start.p0(i64 8, ptr %3) #8
  %5 = load ptr, ptr %2, align 8, !tbaa !4
  %6 = getelementptr inbounds nuw %struct.AVTextWriterContext, ptr %5, i32 0, i32 3
  %7 = load ptr, ptr %6, align 8, !tbaa !9
  store ptr %7, ptr %3, align 8, !tbaa !14
  call void @llvm.lifetime.start.p0(i64 4, ptr %4) #8
  store i32 0, ptr %4, align 4, !tbaa !16
  %8 = load ptr, ptr %3, align 8, !tbaa !14
  %9 = getelementptr inbounds nuw %struct.IOWriterContext, ptr %8, i32 0, i32 2
  %10 = load i32, ptr %9, align 8, !tbaa !18
  %11 = icmp ne i32 %10, 0
  br i1 %11, label %12, label %16

12:                                               ; preds = %1
  %13 = load ptr, ptr %3, align 8, !tbaa !14
  %14 = getelementptr inbounds nuw %struct.IOWriterContext, ptr %13, i32 0, i32 1
  %15 = call i32 @avio_closep(ptr noundef %14)
  store i32 %15, ptr %4, align 4, !tbaa !16
  br label %16

16:                                               ; preds = %12, %1
  %17 = load i32, ptr %4, align 4, !tbaa !16
  call void @llvm.lifetime.end.p0(i64 4, ptr %4) #8
  call void @llvm.lifetime.end.p0(i64 8, ptr %3) #8
  ret i32 %17
}

; Function Attrs: nounwind uwtable
define internal void @io_w8(ptr noundef %0, i32 noundef %1) #1 {
  %3 = alloca ptr, align 8
  %4 = alloca i32, align 4
  %5 = alloca ptr, align 8
  store ptr %0, ptr %3, align 8, !tbaa !4
  store i32 %1, ptr %4, align 4, !tbaa !16
  call void @llvm.lifetime.start.p0(i64 8, ptr %5) #8
  %6 = load ptr, ptr %3, align 8, !tbaa !4
  %7 = getelementptr inbounds nuw %struct.AVTextWriterContext, ptr %6, i32 0, i32 3
  %8 = load ptr, ptr %7, align 8, !tbaa !9
  store ptr %8, ptr %5, align 8, !tbaa !14
  %9 = load ptr, ptr %5, align 8, !tbaa !14
  %10 = getelementptr inbounds nuw %struct.IOWriterContext, ptr %9, i32 0, i32 1
  %11 = load ptr, ptr %10, align 8, !tbaa !21
  %12 = load i32, ptr %4, align 4, !tbaa !16
  call void @avio_w8(ptr noundef %11, i32 noundef %12)
  call void @llvm.lifetime.end.p0(i64 8, ptr %5) #8
  ret void
}

; Function Attrs: nounwind uwtable
define internal void @io_put_str(ptr noundef %0, ptr noundef %1) #1 {
  %3 = alloca ptr, align 8
  %4 = alloca ptr, align 8
  %5 = alloca ptr, align 8
  store ptr %0, ptr %3, align 8, !tbaa !4
  store ptr %1, ptr %4, align 8, !tbaa !22
  call void @llvm.lifetime.start.p0(i64 8, ptr %5) #8
  %6 = load ptr, ptr %3, align 8, !tbaa !4
  %7 = getelementptr inbounds nuw %struct.AVTextWriterContext, ptr %6, i32 0, i32 3
  %8 = load ptr, ptr %7, align 8, !tbaa !9
  store ptr %8, ptr %5, align 8, !tbaa !14
  %9 = load ptr, ptr %5, align 8, !tbaa !14
  %10 = getelementptr inbounds nuw %struct.IOWriterContext, ptr %9, i32 0, i32 1
  %11 = load ptr, ptr %10, align 8, !tbaa !21
  %12 = load ptr, ptr %4, align 8, !tbaa !22
  %13 = load ptr, ptr %4, align 8, !tbaa !22
  %14 = call i64 @strlen(ptr noundef %13) #9
  %15 = trunc i64 %14 to i32
  call void @avio_write(ptr noundef %11, ptr noundef %12, i32 noundef %15)
  call void @llvm.lifetime.end.p0(i64 8, ptr %5) #8
  ret void
}

; Function Attrs: nounwind uwtable
define internal void @io_vprintf(ptr noundef %0, ptr noundef %1, ptr noundef %2) #1 {
  %4 = alloca ptr, align 8
  %5 = alloca ptr, align 8
  %6 = alloca ptr, align 8
  %7 = alloca ptr, align 8
  store ptr %0, ptr %4, align 8, !tbaa !4
  store ptr %1, ptr %5, align 8, !tbaa !22
  store ptr %2, ptr %6, align 8, !tbaa !23
  call void @llvm.lifetime.start.p0(i64 8, ptr %7) #8
  %8 = load ptr, ptr %4, align 8, !tbaa !4
  %9 = getelementptr inbounds nuw %struct.AVTextWriterContext, ptr %8, i32 0, i32 3
  %10 = load ptr, ptr %9, align 8, !tbaa !9
  store ptr %10, ptr %7, align 8, !tbaa !14
  %11 = load ptr, ptr %7, align 8, !tbaa !14
  %12 = getelementptr inbounds nuw %struct.IOWriterContext, ptr %11, i32 0, i32 1
  %13 = load ptr, ptr %12, align 8, !tbaa !21
  %14 = load ptr, ptr %5, align 8, !tbaa !22
  %15 = load ptr, ptr %6, align 8, !tbaa !23
  %16 = call i32 @avio_vprintf(ptr noundef %13, ptr noundef %14, ptr noundef %15)
  call void @llvm.lifetime.end.p0(i64 8, ptr %7) #8
  ret void
}

; Function Attrs: nounwind uwtable
define i32 @avtextwriter_create_file(ptr noundef %0, ptr noundef %1) #1 {
  %3 = alloca i32, align 4
  %4 = alloca ptr, align 8
  %5 = alloca ptr, align 8
  %6 = alloca ptr, align 8
  %7 = alloca i32, align 4
  %8 = alloca i32, align 4
  %9 = alloca [64 x i8], align 1
  store ptr %0, ptr %4, align 8, !tbaa !25
  store ptr %1, ptr %5, align 8, !tbaa !22
  call void @llvm.lifetime.start.p0(i64 8, ptr %6) #8
  call void @llvm.lifetime.start.p0(i64 4, ptr %7) #8
  %10 = load ptr, ptr %5, align 8, !tbaa !22
  %11 = icmp ne ptr %10, null
  br i1 %11, label %12, label %17

12:                                               ; preds = %2
  %13 = load ptr, ptr %5, align 8, !tbaa !22
  %14 = getelementptr inbounds i8, ptr %13, i64 0
  %15 = load i8, ptr %14, align 1, !tbaa !28
  %16 = icmp ne i8 %15, 0
  br i1 %16, label %18, label %17

17:                                               ; preds = %12, %2
  call void (ptr, i32, ptr, ...) @av_log(ptr noundef null, i32 noundef 16, ptr noundef @.str.1)
  store i32 -22, ptr %3, align 4
  store i32 1, ptr %8, align 4
  br label %48

18:                                               ; preds = %12
  %19 = load ptr, ptr %4, align 8, !tbaa !25
  %20 = call i32 @avtextwriter_context_open(ptr noundef %19, ptr noundef @avtextwriter_avio)
  store i32 %20, ptr %7, align 4, !tbaa !16
  %21 = load i32, ptr %7, align 4, !tbaa !16
  %22 = icmp slt i32 %21, 0
  br i1 %22, label %23, label %25

23:                                               ; preds = %18
  %24 = load i32, ptr %7, align 4, !tbaa !16
  store i32 %24, ptr %3, align 4
  store i32 1, ptr %8, align 4
  br label %48

25:                                               ; preds = %18
  %26 = load ptr, ptr %4, align 8, !tbaa !25
  %27 = load ptr, ptr %26, align 8, !tbaa !4
  %28 = getelementptr inbounds nuw %struct.AVTextWriterContext, ptr %27, i32 0, i32 3
  %29 = load ptr, ptr %28, align 8, !tbaa !9
  store ptr %29, ptr %6, align 8, !tbaa !14
  %30 = load ptr, ptr %6, align 8, !tbaa !14
  %31 = getelementptr inbounds nuw %struct.IOWriterContext, ptr %30, i32 0, i32 1
  %32 = load ptr, ptr %5, align 8, !tbaa !22
  %33 = call i32 @avio_open(ptr noundef %31, ptr noundef %32, i32 noundef 2)
  store i32 %33, ptr %7, align 4, !tbaa !16
  %34 = icmp slt i32 %33, 0
  br i1 %34, label %35, label %44

35:                                               ; preds = %25
  %36 = load ptr, ptr %6, align 8, !tbaa !14
  %37 = load ptr, ptr %5, align 8, !tbaa !22
  call void @llvm.memset.p0.i64(ptr align 1 %9, i8 0, i64 64, i1 false)
  %38 = getelementptr inbounds [64 x i8], ptr %9, i64 0, i64 0
  %39 = load i32, ptr %7, align 4, !tbaa !16
  %40 = call ptr @av_make_error_string(ptr noundef %38, i64 noundef 64, i32 noundef %39)
  call void (ptr, i32, ptr, ...) @av_log(ptr noundef %36, i32 noundef 16, ptr noundef @.str.2, ptr noundef %37, ptr noundef %40)
  %41 = load ptr, ptr %4, align 8, !tbaa !25
  %42 = call i32 @avtextwriter_context_close(ptr noundef %41)
  %43 = load i32, ptr %7, align 4, !tbaa !16
  store i32 %43, ptr %3, align 4
  store i32 1, ptr %8, align 4
  br label %48

44:                                               ; preds = %25
  %45 = load ptr, ptr %6, align 8, !tbaa !14
  %46 = getelementptr inbounds nuw %struct.IOWriterContext, ptr %45, i32 0, i32 2
  store i32 1, ptr %46, align 8, !tbaa !18
  %47 = load i32, ptr %7, align 4, !tbaa !16
  store i32 %47, ptr %3, align 4
  store i32 1, ptr %8, align 4
  br label %48

48:                                               ; preds = %44, %35, %23, %17
  call void @llvm.lifetime.end.p0(i64 4, ptr %7) #8
  call void @llvm.lifetime.end.p0(i64 8, ptr %6) #8
  %49 = load i32, ptr %3, align 4
  ret i32 %49
}

; Function Attrs: nocallback nofree nosync nounwind willreturn memory(argmem: readwrite)
declare void @llvm.lifetime.start.p0(i64 immarg, ptr captures(none)) #2

declare void @av_log(ptr noundef, i32 noundef, ptr noundef, ...) #3

declare i32 @avtextwriter_context_open(ptr noundef, ptr noundef) #3

declare i32 @avio_open(ptr noundef, ptr noundef, i32 noundef) #3

; Function Attrs: inlinehint nounwind uwtable
define internal ptr @av_make_error_string(ptr noundef %0, i64 noundef %1, i32 noundef %2) #4 {
  %4 = alloca ptr, align 8
  %5 = alloca i64, align 8
  %6 = alloca i32, align 4
  store ptr %0, ptr %4, align 8, !tbaa !22
  store i64 %1, ptr %5, align 8, !tbaa !29
  store i32 %2, ptr %6, align 4, !tbaa !16
  %7 = load i32, ptr %6, align 4, !tbaa !16
  %8 = load ptr, ptr %4, align 8, !tbaa !22
  %9 = load i64, ptr %5, align 8, !tbaa !29
  %10 = call i32 @av_strerror(i32 noundef %7, ptr noundef %8, i64 noundef %9)
  %11 = load ptr, ptr %4, align 8, !tbaa !22
  ret ptr %11
}

; Function Attrs: nocallback nofree nounwind willreturn memory(argmem: write)
declare void @llvm.memset.p0.i64(ptr writeonly captures(none), i8, i64, i1 immarg) #5

declare i32 @avtextwriter_context_close(ptr noundef) #3

; Function Attrs: nocallback nofree nosync nounwind willreturn memory(argmem: readwrite)
declare void @llvm.lifetime.end.p0(i64 immarg, ptr captures(none)) #2

; Function Attrs: nounwind uwtable
define i32 @avtextwriter_create_avio(ptr noundef %0, ptr noundef %1, i32 noundef %2) #1 {
  %4 = alloca i32, align 4
  %5 = alloca ptr, align 8
  %6 = alloca ptr, align 8
  %7 = alloca i32, align 4
  %8 = alloca ptr, align 8
  %9 = alloca i32, align 4
  %10 = alloca i32, align 4
  store ptr %0, ptr %5, align 8, !tbaa !25
  store ptr %1, ptr %6, align 8, !tbaa !31
  store i32 %2, ptr %7, align 4, !tbaa !16
  call void @llvm.lifetime.start.p0(i64 8, ptr %8) #8
  call void @llvm.lifetime.start.p0(i64 4, ptr %9) #8
  br label %11

11:                                               ; preds = %3
  %12 = load ptr, ptr %6, align 8, !tbaa !31
  %13 = icmp ne ptr %12, null
  br i1 %13, label %15, label %14

14:                                               ; preds = %11
  call void (ptr, i32, ptr, ...) @av_log(ptr noundef null, i32 noundef 0, ptr noundef @.str.3, ptr noundef @.str.4, ptr noundef @.str.5, i32 noundef 113)
  call void @abort() #10
  unreachable

15:                                               ; preds = %11
  br label %16

16:                                               ; preds = %15
  br label %17

17:                                               ; preds = %16
  %18 = load ptr, ptr %5, align 8, !tbaa !25
  %19 = call i32 @avtextwriter_context_open(ptr noundef %18, ptr noundef @avtextwriter_avio)
  store i32 %19, ptr %9, align 4, !tbaa !16
  %20 = load i32, ptr %9, align 4, !tbaa !16
  %21 = icmp slt i32 %20, 0
  br i1 %21, label %22, label %24

22:                                               ; preds = %17
  %23 = load i32, ptr %9, align 4, !tbaa !16
  store i32 %23, ptr %4, align 4
  store i32 1, ptr %10, align 4
  br label %36

24:                                               ; preds = %17
  %25 = load ptr, ptr %5, align 8, !tbaa !25
  %26 = load ptr, ptr %25, align 8, !tbaa !4
  %27 = getelementptr inbounds nuw %struct.AVTextWriterContext, ptr %26, i32 0, i32 3
  %28 = load ptr, ptr %27, align 8, !tbaa !9
  store ptr %28, ptr %8, align 8, !tbaa !14
  %29 = load ptr, ptr %6, align 8, !tbaa !31
  %30 = load ptr, ptr %8, align 8, !tbaa !14
  %31 = getelementptr inbounds nuw %struct.IOWriterContext, ptr %30, i32 0, i32 1
  store ptr %29, ptr %31, align 8, !tbaa !21
  %32 = load i32, ptr %7, align 4, !tbaa !16
  %33 = load ptr, ptr %8, align 8, !tbaa !14
  %34 = getelementptr inbounds nuw %struct.IOWriterContext, ptr %33, i32 0, i32 2
  store i32 %32, ptr %34, align 8, !tbaa !18
  %35 = load i32, ptr %9, align 4, !tbaa !16
  store i32 %35, ptr %4, align 4
  store i32 1, ptr %10, align 4
  br label %36

36:                                               ; preds = %24, %22
  call void @llvm.lifetime.end.p0(i64 4, ptr %9) #8
  call void @llvm.lifetime.end.p0(i64 8, ptr %8) #8
  %37 = load i32, ptr %4, align 4
  ret i32 %37
}

; Function Attrs: noreturn nounwind
declare void @abort() #6

declare i32 @avio_closep(ptr noundef) #3

declare void @avio_w8(ptr noundef, i32 noundef) #3

declare void @avio_write(ptr noundef, ptr noundef, i32 noundef) #3

; Function Attrs: nounwind willreturn memory(read)
declare i64 @strlen(ptr noundef) #7

declare i32 @avio_vprintf(ptr noundef, ptr noundef, ptr noundef) #3

declare i32 @av_strerror(i32 noundef, ptr noundef, i64 noundef) #3


!llvm.module.flags = !{!0, !1, !2, !3}

!0 = !{i32 1, !"wchar_size", i32 4}
!1 = !{i32 8, !"PIC Level", i32 2}
!2 = !{i32 7, !"uwtable", i32 2}
!3 = !{i32 1, !"override-stack-alignment", i32 16}
!4 = !{!5, !5, i64 0}
!5 = !{!"p1 _ZTS19AVTextWriterContext", !6, i64 0}
!6 = !{!"any pointer", !7, i64 0}
!7 = !{!"omnipotent char", !8, i64 0}
!8 = !{!"Simple C/C++ TBAA"}
!9 = !{!10, !6, i64 24}
!10 = !{!"AVTextWriterContext", !11, i64 0, !12, i64 8, !13, i64 16, !6, i64 24}
!11 = !{!"p1 _ZTS7AVClass", !6, i64 0}
!12 = !{!"p1 _ZTS12AVTextWriter", !6, i64 0}
!13 = !{!"p1 omnipotent char", !6, i64 0}
!14 = !{!15, !15, i64 0}
!15 = !{!"p1 _ZTS15IOWriterContext", !6, i64 0}
!16 = !{!17, !17, i64 0}
!17 = !{!"int", !7, i64 0}
!18 = !{!19, !17, i64 16}
!19 = !{!"IOWriterContext", !11, i64 0, !20, i64 8, !17, i64 16}
!20 = !{!"p1 _ZTS11AVIOContext", !6, i64 0}
!21 = !{!19, !20, i64 8}
!22 = !{!13, !13, i64 0}
!23 = !{!24, !24, i64 0}
!24 = !{!"p1 _ZTS13__va_list_tag", !6, i64 0}
!25 = !{!26, !26, i64 0}
!26 = !{!"p2 _ZTS19AVTextWriterContext", !27, i64 0}
!27 = !{!"any p2 pointer", !6, i64 0}
!28 = !{!7, !7, i64 0}
!29 = !{!30, !30, i64 0}
!30 = !{!"long", !7, i64 0}
!31 = !{!20, !20, i64 0}
